target datalayout = "e-m:e-p270:32:32-p271:32:32-p272:64:64-i64:64-i128:128-f80:128-n8:16:32:64-S128"
target triple = "x86_64-pc-linux-gnu"

; Function Attrs: mustprogress nounwind uwtable
define noundef i64 @_ZN3gmx21greatestCommonDivisorEll(i64 noundef %0, i64 noundef %1) #0 {
  %3 = alloca i64, align 8
  %4 = alloca i64, align 8
  %5 = alloca i64, align 8
  store i64 %0, ptr %3, align 8, !tbaa !8
  store i64 %1, ptr %4, align 8, !tbaa !8
  br label %6

6:                                                ; preds = %9, %2
  %7 = load i64, ptr %4, align 8, !tbaa !8
  %8 = icmp ne i64 %7, 0
  br i1 %8, label %9, label %15

9:                                                ; preds = %6
  call void @llvm.lifetime.start.p0(i64 8, ptr %5) #7
  %10 = load i64, ptr %4, align 8, !tbaa !8
  store i64 %10, ptr %5, align 8, !tbaa !8
  %11 = load i64, ptr %3, align 8, !tbaa !8
  %12 = load i64, ptr %4, align 8, !tbaa !8
  %13 = srem i64 %11, %12
  store i64 %13, ptr %4, align 8, !tbaa !8
  %14 = load i64, ptr %5, align 8, !tbaa !8
  store i64 %14, ptr %3, align 8, !tbaa !8
  call void @llvm.lifetime.end.p0(i64 8, ptr %5) #7
  br label %6, !llvm.loop !10

15:                                               ; preds = %6
  %16 = load i64, ptr %3, align 8, !tbaa !8
  ret i64 %16
}