; Function Attrs: mustprogress nofree norecurse nosync nounwind willreturn memory(none) uwtable
define noundef i64 @_ZN3gmx21greatestCommonDivisorEll(i64 noundef %0, i64 noundef %1) local_unnamed_addr #0 {
  %.not7 = icmp eq i64 %1, 0
  br i1 %.not7, label %._crit_edge, label %.lr.ph

.lr.ph:                                           ; preds = %2, %.lr.ph
  %.09 = phi i64 [ %.068, %.lr.ph ], [ %0, %2 ]
  %.068 = phi i64 [ %3, %.lr.ph ], [ %1, %2 ]
  %3 = srem i64 %.09, %.068
  %.not = icmp eq i64 %3, 0
  br i1 %.not, label %._crit_edge, label %.lr.ph, !llvm.loop !4

._crit_edge:                                      ; preds = %.lr.ph, %2
  %.0.lcssa = phi i64 [ %0, %2 ], [ %.068, %.lr.ph ]
  ret i64 %.0.lcssa
}